target datalayout = "e-m:e-p270:32:32-p271:32:32-p272:64:64-i64:64-i128:128-f80:128-n8:16:32:64-S128"
target triple = "x86_64-pc-linux-gnu"

@stderr = external global ptr, align 8
@.str = private unnamed_addr constant [16 x i8] c"%s <test file>\0A\00", align 1

; Function Attrs: mustprogress norecurse uwtable
define hidden noundef i32 @main(i32 noundef %0, ptr noundef %1) #0 {
  %3 = alloca i32, align 4
  %4 = alloca i32, align 4
  %5 = alloca ptr, align 8
  store i32 0, ptr %3, align 4
  store i32 %0, ptr %4, align 4, !tbaa !6
  store ptr %1, ptr %5, align 8, !tbaa !10
  call void @CRYPTO_library_init()
  %6 = load i32, ptr %4, align 4, !tbaa !6
  %7 = icmp ne i32 %6, 2
  br i1 %7, label %8, label %14

8:                                                ; preds = %2
  %9 = load ptr, ptr @stderr, align 8, !tbaa !13
  %10 = load ptr, ptr %5, align 8, !tbaa !10
  %11 = getelementptr inbounds ptr, ptr %10, i64 0
  %12 = load ptr, ptr %11, align 8, !tbaa !15
  %13 = call i32 (ptr, ptr, ...) @fprintf(ptr noundef %9, ptr noundef @.str, ptr noundef %12) #16
  store i32 1, ptr %3, align 4
  br label %19

14:                                               ; preds = %2
  %15 = load ptr, ptr %5, align 8, !tbaa !10
  %16 = getelementptr inbounds ptr, ptr %15, i64 1
  %17 = load ptr, ptr %16, align 8, !tbaa !15
  %18 = call noundef i32 @_Z12FileTestMainPFbP8FileTestPvES1_PKc(ptr noundef @_ZL10TestCipherP8FileTestPv, ptr noundef null, ptr noundef %17)
  store i32 %18, ptr %3, align 4
  br label %19

19:                                               ; preds = %14, %8
  %20 = load i32, ptr %3, align 4
  ret i32 %20
}