; Function Attrs: mustprogress norecurse uwtable
define hidden noundef i32 @main(i32 noundef %0, ptr noundef readonly captures(none) %1) local_unnamed_addr #0 {
  tail call void @CRYPTO_library_init()
  %.not = icmp eq i32 %0, 2
  br i1 %.not, label %7, label %3

3:                                                ; preds = %2
  %4 = load ptr, ptr @stderr, align 8, !tbaa !6
  %5 = load ptr, ptr %1, align 8, !tbaa !11
  %6 = tail call i32 (ptr, ptr, ...) @fprintf(ptr noundef %4, ptr noundef nonnull @.str, ptr noundef %5) #15
  br label %11

7:                                                ; preds = %2
  %8 = getelementptr inbounds nuw i8, ptr %1, i64 8
  %9 = load ptr, ptr %8, align 8, !tbaa !11
  %10 = tail call noundef i32 @_Z12FileTestMainPFbP8FileTestPvES1_PKc(ptr noundef nonnull @_ZL10TestCipherP8FileTestPv, ptr noundef null, ptr noundef %9)
  br label %11

11:                                               ; preds = %7, %3
  %.0 = phi i32 [ 1, %3 ], [ %10, %7 ]
  ret i32 %.0
}